; Function Attrs: mustprogress uwtable
define void @uregex_setText_75(ptr noundef %regexp2, ptr noundef %text, i32 noundef %textLength, ptr noundef %status) local_unnamed_addr #5 {
entry:
  %input = alloca %struct.UText, align 8
  %0 = load i32, ptr %status, align 4
  %cmp.i.i = icmp slt i32 %0, 1
  br i1 %cmp.i.i, label %if.end.i, label %return

if.end.i:                                         ; preds = %entry
  %cmp.i = icmp eq ptr %regexp2, null
  br i1 %cmp.i, label %return.sink.split.i, label %lor.lhs.false.i

lor.lhs.false.i:                                  ; preds = %if.end.i
  %1 = load i32, ptr %regexp2, align 8
  %cmp1.not.i = icmp eq i32 %1, 1919252592
  br i1 %cmp1.not.i, label %if.end, label %return.sink.split.i

return.sink.split.i:                              ; preds = %lor.lhs.false.i, %if.end.i
  store i32 1, ptr %status, align 4
  br label %return

if.end:                                           ; preds = %lor.lhs.false.i
  %cmp1 = icmp eq ptr %text, null
  %cmp2 = icmp slt i32 %textLength, -1
  %or.cond = or i1 %cmp1, %cmp2
  br i1 %or.cond, label %if.then3, label %if.end4

if.then3:                                         ; preds = %if.end
  store i32 1, ptr %status, align 4
  br label %return

if.end4:                                          ; preds = %if.end
  %fOwnsText = getelementptr inbounds i8, ptr %regexp2, i64 60
  %2 = load i8, ptr %fOwnsText, align 4
  %tobool.not = icmp eq i8 %2, 0
  br i1 %tobool.not, label %if.end8, label %land.lhs.true

land.lhs.true:                                    ; preds = %if.end4
  %fText = getelementptr inbounds i8, ptr %regexp2, i64 48
  %3 = load ptr, ptr %fText, align 8
  %cmp5.not = icmp eq ptr %3, null
  br i1 %cmp5.not, label %if.end8, label %if.then6

if.then6:                                         ; preds = %land.lhs.true
  tail call void @uprv_free_75(ptr noundef nonnull %3)
  br label %if.end8

if.end8:                                          ; preds = %if.then6, %land.lhs.true, %if.end4
  %fText9 = getelementptr inbounds i8, ptr %regexp2, i64 48
  store ptr %text, ptr %fText9, align 8
  %fTextLength = getelementptr inbounds i8, ptr %regexp2, i64 56
  store i32 %textLength, ptr %fTextLength, align 8
  store i8 0, ptr %fOwnsText, align 4
  call void @llvm.memset.p0.i64(ptr noundef nonnull align 8 dereferenceable(144) %input, i8 0, i64 144, i1 false)
  store i32 878368812, ptr %input, align 8
  %4 = getelementptr inbounds i8, ptr %input, i64 12
  store i32 144, ptr %4, align 4
  %conv11 = sext i32 %textLength to i64
  %call12 = call ptr @utext_openUChars_75(ptr noundef nonnull %input, ptr noundef nonnull %text, i64 noundef %conv11, ptr noundef nonnull %status)
  %fMatcher = getelementptr inbounds i8, ptr %regexp2, i64 40
  %5 = load ptr, ptr %fMatcher, align 8
  %call13 = call noundef nonnull align 8 dereferenceable(336) ptr @_ZN6icu_7512RegexMatcher5resetEP5UText(ptr noundef nonnull align 8 dereferenceable(336) %5, ptr noundef nonnull %input)
  %call14 = call ptr @utext_close_75(ptr noundef nonnull %input)
  br label %return

return:                                           ; preds = %return.sink.split.i, %entry, %if.end8, %if.then3
  ret void
}